target datalayout = "e-m:e-p270:32:32-p271:32:32-p272:64:64-i64:64-i128:128-f80:128-n8:16:32:64-S128"
target triple = "x86_64-pc-linux-gnu"

%"class.Json::Value" = type { %"union.Json::Value::ValueHolder", %struct.anon, %"class.Json::Value::Comments", i64, i64 }
%"union.Json::Value::ValueHolder" = type { i64 }
%struct.anon = type { i16, [2 x i8] }
%"class.Json::Value::Comments" = type { %"class.std::unique_ptr" }
%"class.std::unique_ptr" = type { %"struct.std::__uniq_ptr_data" }
%"struct.std::__uniq_ptr_data" = type { %"class.std::__uniq_ptr_impl" }
%"class.std::__uniq_ptr_impl" = type { %"class.std::tuple" }
%"class.std::tuple" = type { %"struct.std::_Tuple_impl" }
%"struct.std::_Tuple_impl" = type { %"struct.std::_Head_base.1" }
%"struct.std::_Head_base.1" = type { ptr }
%"class.dap::boolean" = type { i8 }
%"struct.dap::json::JsonCppSerializer" = type <{ %"class.dap::Serializer", ptr, i8, i8, [6 x i8] }>
%"class.dap::Serializer" = type { ptr }

; Function Attrs: mustprogress nounwind uwtable
define linkonce_odr dso_local noundef zeroext i1 @_ZNK3dap7booleancvbEv(ptr noundef nonnull align 1 dereferenceable(1) %0) #1 comdat align 2 {
  %2 = alloca ptr, align 8
  store ptr %0, ptr %2, align 8
  %3 = load ptr, ptr %2, align 8
  %4 = getelementptr inbounds %"class.dap::boolean", ptr %3, i32 0, i32 0
  %5 = load i8, ptr %4, align 1
  %6 = trunc i8 %5 to i1
  ret i1 %6
}

; Function Attrs: mustprogress uwtable
define dso_local noundef zeroext i1 @_ZN3dap4json17JsonCppSerializer9serializeENS_7booleanE(ptr noundef nonnull align 8 dereferenceable(18) %0, i8 %1) unnamed_addr #0 align 2 {
  %3 = alloca %"class.dap::boolean", align 1
  %4 = alloca ptr, align 8
  %5 = alloca %"class.Json::Value", align 8
  %6 = getelementptr inbounds %"class.dap::boolean", ptr %3, i32 0, i32 0
  store i8 %1, ptr %6, align 1
  store ptr %0, ptr %4, align 8
  %7 = load ptr, ptr %4, align 8
  %8 = call noundef zeroext i1 @_ZNK3dap7booleancvbEv(ptr noundef nonnull align 1 dereferenceable(1) %3)
  call void @_ZN4Json5ValueC1Eb(ptr noundef nonnull align 8 dereferenceable(40) %5, i1 noundef zeroext %8)
  %9 = getelementptr inbounds %"struct.dap::json::JsonCppSerializer", ptr %7, i32 0, i32 1
  %10 = load ptr, ptr %9, align 8
  %11 = call noundef nonnull align 8 dereferenceable(40) ptr @_ZN4Json5ValueaSEOS0_(ptr noundef nonnull align 8 dereferenceable(40) %10, ptr noundef nonnull align 8 dereferenceable(40) %5) #13
  call void @_ZN4Json5ValueD1Ev(ptr noundef nonnull align 8 dereferenceable(40) %5) #13
  ret i1 true
}