; Function Attrs: mustprogress uwtable
define dso_local noundef zeroext i1 @_ZN3dap4json17JsonCppSerializer9serializeENS_7booleanE(ptr nocapture noundef nonnull readonly align 8 dereferenceable(18) %0, i8 %1) unnamed_addr #0 align 2 {
  %3 = alloca %"class.Json::Value", align 8
  %4 = and i8 %1, 1
  %5 = icmp ne i8 %4, 0
  call void @_ZN4Json5ValueC1Eb(ptr noundef nonnull align 8 dereferenceable(40) %3, i1 noundef zeroext %5)
  %6 = getelementptr inbounds i8, ptr %0, i64 8
  %7 = load ptr, ptr %6, align 8
  %8 = call noundef nonnull align 8 dereferenceable(40) ptr @_ZN4Json5ValueaSEOS0_(ptr noundef nonnull align 8 dereferenceable(40) %7, ptr noundef nonnull align 8 dereferenceable(40) %3) #21
  call void @_ZN4Json5ValueD1Ev(ptr noundef nonnull align 8 dereferenceable(40) %3) #21
  ret i1 true
}